target datalayout = "e-m:e-p270:32:32-p271:32:32-p272:64:64-i64:64-i128:128-f80:128-n8:16:32:64-S128"
target triple = "x86_64-pc-linux-gnu"

%"class.llvm::DWARFFormValue" = type { i16, i8, %"struct.llvm::DWARFFormValue::ValueType", ptr, ptr }
%"struct.llvm::DWARFFormValue::ValueType" = type { %union.anon, ptr, i64 }
%union.anon = type { i64 }
%"class.llvm::DWARFDie" = type { ptr, ptr }
%"class.llvm::SmallVectorBase" = type { ptr, i32, i32 }
%"class.llvm::DWARFDie::attribute_iterator" = type <{ %"class.llvm::DWARFDie", %"struct.llvm::DWARFAttribute", i32, [4 x i8] }>
%"struct.llvm::DWARFAttribute" = type { i64, i32, i16, %"class.llvm::DWARFFormValue" }
%"class.llvm::DWARFAbbreviationDeclaration" = type { i32, i16, i8, i8, %"class.llvm::SmallVector", %"class.std::optional.0" }
%"class.llvm::SmallVector" = type { %"class.llvm::SmallVectorImpl", %"struct.llvm::SmallVectorStorage" }
%"class.llvm::SmallVectorImpl" = type { %"class.llvm::SmallVectorTemplateBase" }
%"class.llvm::SmallVectorTemplateBase" = type { %"class.llvm::SmallVectorTemplateCommon" }
%"class.llvm::SmallVectorTemplateCommon" = type { %"class.llvm::SmallVectorBase" }
%"struct.llvm::SmallVectorStorage" = type { [128 x i8] }
%"class.std::optional.0" = type { %"struct.std::_Optional_base.1" }
%"struct.std::_Optional_base.1" = type { %"struct.std::_Optional_payload.3" }
%"struct.std::_Optional_payload.3" = type { %"struct.std::_Optional_payload_base.base.5", i8 }
%"struct.std::_Optional_payload_base.base.5" = type { %"union.std::_Optional_payload_base<llvm::DWARFAbbreviationDeclaration::FixedSizeInfo>::_Storage", i8 }
%"union.std::_Optional_payload_base<llvm::DWARFAbbreviationDeclaration::FixedSizeInfo>::_Storage" = type { %"struct.llvm::DWARFAbbreviationDeclaration::FixedSizeInfo" }
%"struct.llvm::DWARFAbbreviationDeclaration::FixedSizeInfo" = type <{ i16, i8, i8, i8, i8 }>
%"struct.llvm::DWARFAbbreviationDeclaration::AttributeSpec" = type { i16, i16, %union.anon.275 }
%union.anon.275 = type { i64 }

; Function Attrs: mustprogress nounwind uwtable
define linkonce_odr hidden noundef ptr @_ZNK4llvm25SmallVectorTemplateCommonINS_28DWARFAbbreviationDeclaration13AttributeSpecEvE5beginEv(ptr noundef nonnull align 8 dereferenceable(16) %0) #0 comdat align 2 {
  %2 = alloca ptr, align 8
  store ptr %0, ptr %2, align 8
  %3 = load ptr, ptr %2, align 8
  %4 = getelementptr inbounds nuw %"class.llvm::SmallVectorBase", ptr %3, i32 0, i32 0
  %5 = load ptr, ptr %4, align 8
  ret ptr %5
}

; Function Attrs: mustprogress nounwind uwtable
define linkonce_odr hidden void @_ZN4llvm14DWARFFormValue9ValueTypeC2Ev(ptr noundef nonnull align 8 dereferenceable(24) %0) unnamed_addr #0 comdat align 2 {
  %2 = alloca ptr, align 8
  store ptr %0, ptr %2, align 8
  %3 = load ptr, ptr %2, align 8
  %4 = getelementptr inbounds nuw %"struct.llvm::DWARFFormValue::ValueType", ptr %3, i32 0, i32 1
  store ptr null, ptr %4, align 8
  %5 = getelementptr inbounds nuw %"struct.llvm::DWARFFormValue::ValueType", ptr %3, i32 0, i32 0
  store i64 0, ptr %5, align 8
  ret void
}

; Function Attrs: mustprogress nounwind uwtable
define linkonce_odr hidden noundef i64 @_ZNK4llvm28DWARFAbbreviationDeclaration13AttributeSpec21getImplicitConstValueEv(ptr noundef nonnull align 8 dereferenceable(16) %0) #0 comdat align 2 {
  %2 = alloca ptr, align 8
  store ptr %0, ptr %2, align 8
  %3 = load ptr, ptr %2, align 8
  %4 = getelementptr inbounds nuw %"struct.llvm::DWARFAbbreviationDeclaration::AttributeSpec", ptr %3, i32 0, i32 2
  %5 = load i64, ptr %4, align 8
  ret i64 %5
}

; Function Attrs: mustprogress nounwind uwtable
define linkonce_odr hidden noundef zeroext i1 @_ZNK4llvm28DWARFAbbreviationDeclaration13AttributeSpec15isImplicitConstEv(ptr noundef nonnull align 8 dereferenceable(16) %0) #0 comdat align 2 {
  %2 = alloca ptr, align 8
  store ptr %0, ptr %2, align 8
  %3 = load ptr, ptr %2, align 8
  %4 = getelementptr inbounds nuw %"struct.llvm::DWARFAbbreviationDeclaration::AttributeSpec", ptr %3, i32 0, i32 1
  %5 = load i16, ptr %4, align 2
  %6 = zext i16 %5 to i32
  %7 = icmp eq i32 %6, 33
  ret i1 %7
}

; Function Attrs: mustprogress nounwind uwtable
define linkonce_odr hidden noundef nonnull align 8 dereferenceable(16) ptr @_ZNK4llvm25SmallVectorTemplateCommonINS_28DWARFAbbreviationDeclaration13AttributeSpecEvEixEm(ptr noundef nonnull align 8 dereferenceable(16) %0, i64 noundef %1) #0 comdat align 2 {
  %3 = alloca ptr, align 8
  %4 = alloca i64, align 8
  store ptr %0, ptr %3, align 8
  store i64 %1, ptr %4, align 8
  %5 = load ptr, ptr %3, align 8
  %6 = call noundef ptr @_ZNK4llvm25SmallVectorTemplateCommonINS_28DWARFAbbreviationDeclaration13AttributeSpecEvE5beginEv(ptr noundef nonnull align 8 dereferenceable(16) %5)
  %7 = load i64, ptr %4, align 8
  %8 = getelementptr inbounds %"struct.llvm::DWARFAbbreviationDeclaration::AttributeSpec", ptr %6, i64 %7
  ret ptr %8
}

; Function Attrs: mustprogress nounwind uwtable
define linkonce_odr hidden void @_ZN4llvm14DWARFFormValueC2ENS_5dwarf4FormE(ptr noundef nonnull align 8 dereferenceable(48) %0, i16 noundef zeroext %1) unnamed_addr #0 comdat align 2 {
  %3 = alloca ptr, align 8
  %4 = alloca i16, align 2
  store ptr %0, ptr %3, align 8
  store i16 %1, ptr %4, align 2
  %5 = load ptr, ptr %3, align 8
  %6 = getelementptr inbounds nuw %"class.llvm::DWARFFormValue", ptr %5, i32 0, i32 0
  %7 = load i16, ptr %4, align 2
  store i16 %7, ptr %6, align 8
  %8 = getelementptr inbounds nuw %"class.llvm::DWARFFormValue", ptr %5, i32 0, i32 1
  store i8 0, ptr %8, align 2
  %9 = getelementptr inbounds nuw %"class.llvm::DWARFFormValue", ptr %5, i32 0, i32 2
  call void @_ZN4llvm14DWARFFormValue9ValueTypeC2Ev(ptr noundef nonnull align 8 dereferenceable(24) %9)
  %10 = getelementptr inbounds nuw %"class.llvm::DWARFFormValue", ptr %5, i32 0, i32 3
  store ptr null, ptr %10, align 8
  %11 = getelementptr inbounds nuw %"class.llvm::DWARFFormValue", ptr %5, i32 0, i32 4
  store ptr null, ptr %11, align 8
  ret void
}

; Function Attrs: mustprogress nounwind uwtable
define linkonce_odr hidden noundef ptr @_ZNK4llvm8DWARFDie12getDwarfUnitEv(ptr noundef nonnull align 8 dereferenceable(16) %0) #0 comdat align 2 {
  %2 = alloca ptr, align 8
  store ptr %0, ptr %2, align 8
  %3 = load ptr, ptr %2, align 8
  %4 = getelementptr inbounds nuw %"class.llvm::DWARFDie", ptr %3, i32 0, i32 0
  %5 = load ptr, ptr %4, align 8
  ret ptr %5
}

; Function Attrs: mustprogress nounwind uwtable
define linkonce_odr hidden noundef i64 @_ZNK4llvm28DWARFAbbreviationDeclaration32getAttrImplicitConstValueByIndexEj(ptr noundef nonnull align 8 dereferenceable(160) %0, i32 noundef %1) #0 comdat align 2 {
  %3 = alloca ptr, align 8
  %4 = alloca i32, align 4
  store ptr %0, ptr %3, align 8
  store i32 %1, ptr %4, align 4
  %5 = load ptr, ptr %3, align 8
  %6 = getelementptr inbounds nuw %"class.llvm::DWARFAbbreviationDeclaration", ptr %5, i32 0, i32 4
  %7 = load i32, ptr %4, align 4
  %8 = zext i32 %7 to i64
  %9 = call noundef nonnull align 8 dereferenceable(16) ptr @_ZNK4llvm25SmallVectorTemplateCommonINS_28DWARFAbbreviationDeclaration13AttributeSpecEvEixEm(ptr noundef nonnull align 8 dereferenceable(16) %6, i64 noundef %8)
  %10 = call noundef i64 @_ZNK4llvm28DWARFAbbreviationDeclaration13AttributeSpec21getImplicitConstValueEv(ptr noundef nonnull align 8 dereferenceable(16) %9)
  ret i64 %10
}

; Function Attrs: mustprogress nounwind uwtable
define linkonce_odr hidden noundef zeroext i16 @_ZNK4llvm28DWARFAbbreviationDeclaration14getFormByIndexEj(ptr noundef nonnull align 8 dereferenceable(160) %0, i32 noundef %1) #0 comdat align 2 {
  %3 = alloca ptr, align 8
  %4 = alloca i32, align 4
  store ptr %0, ptr %3, align 8
  store i32 %1, ptr %4, align 4
  %5 = load ptr, ptr %3, align 8
  %6 = getelementptr inbounds nuw %"class.llvm::DWARFAbbreviationDeclaration", ptr %5, i32 0, i32 4
  %7 = load i32, ptr %4, align 4
  %8 = zext i32 %7 to i64
  %9 = call noundef nonnull align 8 dereferenceable(16) ptr @_ZNK4llvm25SmallVectorTemplateCommonINS_28DWARFAbbreviationDeclaration13AttributeSpecEvEixEm(ptr noundef nonnull align 8 dereferenceable(16) %6, i64 noundef %8)
  %10 = getelementptr inbounds nuw %"struct.llvm::DWARFAbbreviationDeclaration::AttributeSpec", ptr %9, i32 0, i32 1
  %11 = load i16, ptr %10, align 2
  ret i16 %11
}

; Function Attrs: mustprogress nounwind uwtable
define linkonce_odr hidden noundef zeroext i1 @_ZNK4llvm28DWARFAbbreviationDeclaration29getAttrIsImplicitConstByIndexEj(ptr noundef nonnull align 8 dereferenceable(160) %0, i32 noundef %1) #0 comdat align 2 {
  %3 = alloca ptr, align 8
  %4 = alloca i32, align 4
  store ptr %0, ptr %3, align 8
  store i32 %1, ptr %4, align 4
  %5 = load ptr, ptr %3, align 8
  %6 = getelementptr inbounds nuw %"class.llvm::DWARFAbbreviationDeclaration", ptr %5, i32 0, i32 4
  %7 = load i32, ptr %4, align 4
  %8 = zext i32 %7 to i64
  %9 = call noundef nonnull align 8 dereferenceable(16) ptr @_ZNK4llvm25SmallVectorTemplateCommonINS_28DWARFAbbreviationDeclaration13AttributeSpecEvEixEm(ptr noundef nonnull align 8 dereferenceable(16) %6, i64 noundef %8)
  %10 = call noundef zeroext i1 @_ZNK4llvm28DWARFAbbreviationDeclaration13AttributeSpec15isImplicitConstEv(ptr noundef nonnull align 8 dereferenceable(16) %9)
  ret i1 %10
}

; Function Attrs: mustprogress nounwind uwtable
define linkonce_odr hidden noundef zeroext i16 @_ZNK4llvm28DWARFAbbreviationDeclaration14getAttrByIndexEj(ptr noundef nonnull align 8 dereferenceable(160) %0, i32 noundef %1) #0 comdat align 2 {
  %3 = alloca ptr, align 8
  %4 = alloca i32, align 4
  store ptr %0, ptr %3, align 8
  store i32 %1, ptr %4, align 4
  %5 = load ptr, ptr %3, align 8
  %6 = getelementptr inbounds nuw %"class.llvm::DWARFAbbreviationDeclaration", ptr %5, i32 0, i32 4
  %7 = load i32, ptr %4, align 4
  %8 = zext i32 %7 to i64
  %9 = call noundef nonnull align 8 dereferenceable(16) ptr @_ZNK4llvm25SmallVectorTemplateCommonINS_28DWARFAbbreviationDeclaration13AttributeSpecEvEixEm(ptr noundef nonnull align 8 dereferenceable(16) %6, i64 noundef %8)
  %10 = getelementptr inbounds nuw %"struct.llvm::DWARFAbbreviationDeclaration::AttributeSpec", ptr %9, i32 0, i32 0
  %11 = load i16, ptr %10, align 8
  ret i16 %11
}

; Function Attrs: mustprogress nounwind uwtable
define linkonce_odr hidden noundef i64 @_ZNK4llvm28DWARFAbbreviationDeclaration16getNumAttributesEv(ptr noundef nonnull align 8 dereferenceable(160) %0) #0 comdat align 2 {
  %2 = alloca ptr, align 8
  store ptr %0, ptr %2, align 8
  %3 = load ptr, ptr %2, align 8
  %4 = getelementptr inbounds nuw %"class.llvm::DWARFAbbreviationDeclaration", ptr %3, i32 0, i32 4
  %5 = call noundef i64 @_ZNK4llvm15SmallVectorBaseIjE4sizeEv(ptr noundef nonnull align 8 dereferenceable(16) %4)
  ret i64 %5
}

; Function Attrs: mustprogress nounwind uwtable
define dso_local void @_ZN4llvm8DWARFDie18attribute_iterator14updateForIndexERKNS_28DWARFAbbreviationDeclarationEj(ptr noundef nonnull align 8 dereferenceable(84) %0, ptr noundef nonnull align 8 dereferenceable(160) %1, i32 noundef %2) #0 align 2 {
  %4 = alloca ptr, align 8
  %5 = alloca ptr, align 8
  %6 = alloca i32, align 4
  %7 = alloca i64, align 8
  %8 = alloca i64, align 8
  %9 = alloca %"class.llvm::DWARFFormValue", align 8
  %10 = alloca ptr, align 8
  %11 = alloca %"class.llvm::DWARFFormValue", align 8
  %12 = alloca %"struct.llvm::DWARFAttribute", align 8
  store ptr %0, ptr %4, align 8
  store ptr %1, ptr %5, align 8
  store i32 %2, ptr %6, align 4
  %13 = load ptr, ptr %4, align 8
  %14 = load i32, ptr %6, align 4
  %15 = getelementptr inbounds nuw %"class.llvm::DWARFDie::attribute_iterator", ptr %13, i32 0, i32 2
  store i32 %14, ptr %15, align 8
  %16 = load ptr, ptr %5, align 8
  %17 = call noundef i64 @_ZNK4llvm28DWARFAbbreviationDeclaration16getNumAttributesEv(ptr noundef nonnull align 8 dereferenceable(160) %16)
  store i64 %17, ptr %7, align 8
  %18 = getelementptr inbounds nuw %"class.llvm::DWARFDie::attribute_iterator", ptr %13, i32 0, i32 2
  %19 = load i32, ptr %18, align 8
  %20 = zext i32 %19 to i64
  %21 = load i64, ptr %7, align 8
  %22 = icmp ult i64 %20, %21
  br i1 %22, label %23, label %75

23:                                               ; preds = %3
  %24 = load ptr, ptr %5, align 8
  %25 = getelementptr inbounds nuw %"class.llvm::DWARFDie::attribute_iterator", ptr %13, i32 0, i32 2
  %26 = load i32, ptr %25, align 8
  %27 = call noundef zeroext i16 @_ZNK4llvm28DWARFAbbreviationDeclaration14getAttrByIndexEj(ptr noundef nonnull align 8 dereferenceable(160) %24, i32 noundef %26)
  %28 = getelementptr inbounds nuw %"class.llvm::DWARFDie::attribute_iterator", ptr %13, i32 0, i32 1
  %29 = getelementptr inbounds nuw %"struct.llvm::DWARFAttribute", ptr %28, i32 0, i32 2
  store i16 %27, ptr %29, align 4
  %30 = getelementptr inbounds nuw %"class.llvm::DWARFDie::attribute_iterator", ptr %13, i32 0, i32 1
  %31 = getelementptr inbounds nuw %"struct.llvm::DWARFAttribute", ptr %30, i32 0, i32 1
  %32 = load i32, ptr %31, align 8
  %33 = zext i32 %32 to i64
  %34 = getelementptr inbounds nuw %"class.llvm::DWARFDie::attribute_iterator", ptr %13, i32 0, i32 1
  %35 = getelementptr inbounds nuw %"struct.llvm::DWARFAttribute", ptr %34, i32 0, i32 0
  %36 = load i64, ptr %35, align 8
  %37 = add i64 %36, %33
  store i64 %37, ptr %35, align 8
  %38 = getelementptr inbounds nuw %"class.llvm::DWARFDie::attribute_iterator", ptr %13, i32 0, i32 1
  %39 = getelementptr inbounds nuw %"struct.llvm::DWARFAttribute", ptr %38, i32 0, i32 0
  %40 = load i64, ptr %39, align 8
  store i64 %40, ptr %8, align 8
  %41 = load ptr, ptr %5, align 8
  %42 = getelementptr inbounds nuw %"class.llvm::DWARFDie::attribute_iterator", ptr %13, i32 0, i32 2
  %43 = load i32, ptr %42, align 8
  %44 = call noundef zeroext i1 @_ZNK4llvm28DWARFAbbreviationDeclaration29getAttrIsImplicitConstByIndexEj(ptr noundef nonnull align 8 dereferenceable(160) %41, i32 noundef %43)
  br i1 %44, label %45, label %56

45:                                               ; preds = %23
  %46 = load ptr, ptr %5, align 8
  %47 = getelementptr inbounds nuw %"class.llvm::DWARFDie::attribute_iterator", ptr %13, i32 0, i32 2
  %48 = load i32, ptr %47, align 8
  %49 = call noundef zeroext i16 @_ZNK4llvm28DWARFAbbreviationDeclaration14getFormByIndexEj(ptr noundef nonnull align 8 dereferenceable(160) %46, i32 noundef %48)
  %50 = load ptr, ptr %5, align 8
  %51 = getelementptr inbounds nuw %"class.llvm::DWARFDie::attribute_iterator", ptr %13, i32 0, i32 2
  %52 = load i32, ptr %51, align 8
  %53 = call noundef i64 @_ZNK4llvm28DWARFAbbreviationDeclaration32getAttrImplicitConstValueByIndexEj(ptr noundef nonnull align 8 dereferenceable(160) %50, i32 noundef %52)
  call void @_ZN4llvm14DWARFFormValue16createFromSValueENS_5dwarf4FormEl(ptr dead_on_unwind writable sret(%"class.llvm::DWARFFormValue") align 8 %9, i16 noundef zeroext %49, i64 noundef %53)
  %54 = getelementptr inbounds nuw %"class.llvm::DWARFDie::attribute_iterator", ptr %13, i32 0, i32 1
  %55 = getelementptr inbounds nuw %"struct.llvm::DWARFAttribute", ptr %54, i32 0, i32 3
  call void @llvm.memcpy.p0.p0.i64(ptr align 8 %55, ptr align 8 %9, i64 48, i1 false)
  br label %66

56:                                               ; preds = %23
  %57 = getelementptr inbounds nuw %"class.llvm::DWARFDie::attribute_iterator", ptr %13, i32 0, i32 0
  %58 = call noundef ptr @_ZNK4llvm8DWARFDie12getDwarfUnitEv(ptr noundef nonnull align 8 dereferenceable(16) %57)
  store ptr %58, ptr %10, align 8
  %59 = load ptr, ptr %5, align 8
  %60 = getelementptr inbounds nuw %"class.llvm::DWARFDie::attribute_iterator", ptr %13, i32 0, i32 2
  %61 = load i32, ptr %60, align 8
  %62 = call noundef zeroext i16 @_ZNK4llvm28DWARFAbbreviationDeclaration14getFormByIndexEj(ptr noundef nonnull align 8 dereferenceable(160) %59, i32 noundef %61)
  %63 = load ptr, ptr %10, align 8
  call void @_ZN4llvm14DWARFFormValue14createFromUnitENS_5dwarf4FormEPKNS_9DWARFUnitEPm(ptr dead_on_unwind writable sret(%"class.llvm::DWARFFormValue") align 8 %11, i16 noundef zeroext %62, ptr noundef %63, ptr noundef %8)
  %64 = getelementptr inbounds nuw %"class.llvm::DWARFDie::attribute_iterator", ptr %13, i32 0, i32 1
  %65 = getelementptr inbounds nuw %"struct.llvm::DWARFAttribute", ptr %64, i32 0, i32 3
  call void @llvm.memcpy.p0.p0.i64(ptr align 8 %65, ptr align 8 %11, i64 48, i1 false)
  br label %66

66:                                               ; preds = %56, %45
  %67 = load i64, ptr %8, align 8
  %68 = getelementptr inbounds nuw %"class.llvm::DWARFDie::attribute_iterator", ptr %13, i32 0, i32 1
  %69 = getelementptr inbounds nuw %"struct.llvm::DWARFAttribute", ptr %68, i32 0, i32 0
  %70 = load i64, ptr %69, align 8
  %71 = sub i64 %67, %70
  %72 = trunc i64 %71 to i32
  %73 = getelementptr inbounds nuw %"class.llvm::DWARFDie::attribute_iterator", ptr %13, i32 0, i32 1
  %74 = getelementptr inbounds nuw %"struct.llvm::DWARFAttribute", ptr %73, i32 0, i32 1
  store i32 %72, ptr %74, align 8
  br label %81

75:                                               ; preds = %3
  %76 = getelementptr inbounds nuw %"struct.llvm::DWARFAttribute", ptr %12, i32 0, i32 0
  store i64 0, ptr %76, align 8
  %77 = getelementptr inbounds nuw %"struct.llvm::DWARFAttribute", ptr %12, i32 0, i32 1
  store i32 0, ptr %77, align 8
  %78 = getelementptr inbounds nuw %"struct.llvm::DWARFAttribute", ptr %12, i32 0, i32 2
  store i16 0, ptr %78, align 4
  %79 = getelementptr inbounds nuw %"struct.llvm::DWARFAttribute", ptr %12, i32 0, i32 3
  call void @_ZN4llvm14DWARFFormValueC2ENS_5dwarf4FormE(ptr noundef nonnull align 8 dereferenceable(48) %79, i16 noundef zeroext 0)
  %80 = getelementptr inbounds nuw %"class.llvm::DWARFDie::attribute_iterator", ptr %13, i32 0, i32 1
  call void @llvm.memcpy.p0.p0.i64(ptr align 8 %80, ptr align 8 %12, i64 64, i1 false)
  br label %81

81:                                               ; preds = %75, %66
  ret void
}