; Function Attrs: mustprogress nounwind uwtable
define dso_local void @_ZN4llvm8DWARFDie18attribute_iterator14updateForIndexERKNS_28DWARFAbbreviationDeclarationEj(ptr noundef nonnull align 8 captures(none) dereferenceable(84) initializes((28, 30), (32, 84)) %0, ptr noundef nonnull align 8 dereferenceable(160) %1, i32 noundef %2) local_unnamed_addr #0 align 2 {
  %4 = alloca i64, align 8
  %5 = alloca %"class.llvm::DWARFFormValue", align 8
  %6 = alloca %"class.llvm::DWARFFormValue", align 8
  %.sroa.6 = alloca [21 x i8], align 1
  %.sroa.7 = alloca [24 x i8], align 8
  %7 = getelementptr inbounds nuw i8, ptr %0, i64 80
  store i32 %2, ptr %7, align 8
  %8 = getelementptr inbounds nuw i8, ptr %1, i64 8
  %9 = tail call noundef i64 @_ZNK4llvm15SmallVectorBaseIjE4sizeEv(ptr noundef nonnull align 8 dereferenceable(16) %8) #19
  %10 = load i32, ptr %7, align 8
  %11 = zext i32 %10 to i64
  %12 = icmp ugt i64 %9, %11
  %13 = getelementptr inbounds nuw i8, ptr %0, i64 24
  br i1 %12, label %14, label %40

14:                                               ; preds = %3
  %15 = load ptr, ptr %8, align 8
  %16 = getelementptr inbounds nuw %"struct.llvm::DWARFAbbreviationDeclaration::AttributeSpec", ptr %15, i64 %11
  %17 = load i16, ptr %16, align 8
  %18 = getelementptr inbounds nuw i8, ptr %0, i64 16
  %19 = getelementptr inbounds nuw i8, ptr %0, i64 28
  store i16 %17, ptr %19, align 4
  %20 = load i32, ptr %13, align 8
  %21 = zext i32 %20 to i64
  %22 = load i64, ptr %18, align 8
  %23 = add i64 %22, %21
  store i64 %23, ptr %18, align 8
  store i64 %23, ptr %4, align 8
  %24 = load ptr, ptr %8, align 8
  %25 = getelementptr inbounds nuw %"struct.llvm::DWARFAbbreviationDeclaration::AttributeSpec", ptr %24, i64 %11, i32 1
  %26 = load i16, ptr %25, align 2
  %27 = icmp eq i16 %26, 33
  br i1 %27, label %28, label %32

28:                                               ; preds = %14
  %29 = getelementptr inbounds nuw %"struct.llvm::DWARFAbbreviationDeclaration::AttributeSpec", ptr %24, i64 %11, i32 2
  %30 = load i64, ptr %29, align 8
  call void @_ZN4llvm14DWARFFormValue16createFromSValueENS_5dwarf4FormEl(ptr dead_on_unwind nonnull writable sret(%"class.llvm::DWARFFormValue") align 8 %5, i16 noundef zeroext 33, i64 noundef %30) #19
  %31 = getelementptr inbounds nuw i8, ptr %0, i64 32
  call void @llvm.memcpy.p0.p0.i64(ptr noundef nonnull align 8 dereferenceable(48) %31, ptr noundef nonnull align 8 dereferenceable(48) %5, i64 48, i1 false)
  br label %35

32:                                               ; preds = %14
  %33 = load ptr, ptr %0, align 8
  call void @_ZN4llvm14DWARFFormValue14createFromUnitENS_5dwarf4FormEPKNS_9DWARFUnitEPm(ptr dead_on_unwind nonnull writable sret(%"class.llvm::DWARFFormValue") align 8 %6, i16 noundef zeroext %26, ptr noundef %33, ptr noundef nonnull %4) #19
  %34 = getelementptr inbounds nuw i8, ptr %0, i64 32
  call void @llvm.memcpy.p0.p0.i64(ptr noundef nonnull align 8 dereferenceable(48) %34, ptr noundef nonnull align 8 dereferenceable(48) %6, i64 48, i1 false)
  %.pre = load i64, ptr %4, align 8
  br label %35

35:                                               ; preds = %32, %28
  %36 = phi i64 [ %.pre, %32 ], [ %23, %28 ]
  %37 = load i64, ptr %18, align 8
  %38 = sub i64 %36, %37
  %39 = trunc i64 %38 to i32
  store i32 %39, ptr %13, align 8
  br label %42

40:                                               ; preds = %3
  %.sroa.6.5..sroa_idx = getelementptr inbounds nuw i8, ptr %.sroa.6, i64 5
  call void @llvm.memset.p0.i64(ptr noundef nonnull align 1 dereferenceable(16) %.sroa.6.5..sroa_idx, i8 0, i64 16, i1 false)
  %.sroa.7.8..sroa_idx = getelementptr inbounds nuw i8, ptr %.sroa.7, i64 8
  call void @llvm.memset.p0.i64(ptr noundef nonnull align 8 dereferenceable(16) %.sroa.7.8..sroa_idx, i8 0, i64 16, i1 false)
  %41 = getelementptr inbounds nuw i8, ptr %0, i64 16
  store i64 0, ptr %41, align 8
  store i32 0, ptr %13, align 8
  %.sroa.3.0..sroa_idx = getelementptr inbounds nuw i8, ptr %0, i64 28
  store i16 0, ptr %.sroa.3.0..sroa_idx, align 4
  %.sroa.49.0..sroa_idx = getelementptr inbounds nuw i8, ptr %0, i64 32
  store i16 0, ptr %.sroa.49.0..sroa_idx, align 8
  %.sroa.5.0..sroa_idx = getelementptr inbounds nuw i8, ptr %0, i64 34
  store i8 0, ptr %.sroa.5.0..sroa_idx, align 2
  %.sroa.6.0..sroa_idx = getelementptr inbounds nuw i8, ptr %0, i64 35
  call void @llvm.memcpy.p0.p0.i64(ptr noundef nonnull align 1 dereferenceable(21) %.sroa.6.0..sroa_idx, ptr noundef nonnull align 1 dereferenceable(21) %.sroa.6, i64 21, i1 false)
  %.sroa.7.0..sroa_idx = getelementptr inbounds nuw i8, ptr %0, i64 56
  call void @llvm.memcpy.p0.p0.i64(ptr noundef nonnull align 8 dereferenceable(24) %.sroa.7.0..sroa_idx, ptr noundef nonnull align 8 dereferenceable(24) %.sroa.7, i64 24, i1 false)
  br label %42

42:                                               ; preds = %40, %35
  ret void
}